; Function Attrs: mustprogress uwtable
define internal fastcc void @_ZN4cvc58internal6theory2bvL10mkNodeKindENS0_4kind6Kind_tENS0_12NodeTemplateILb0EEES6_(ptr noalias align 8 %agg.result, i32 noundef %k, ptr nocapture noundef readonly %node, ptr noundef %c) unnamed_addr #3 personality ptr @__gxx_personality_v0 {
entry:
  %nb = alloca %"class.cvc5::internal::NodeBuilder", align 8
  %agg.tmp = alloca %"class.cvc5::internal::NodeTemplate.561", align 8
  %ref.tmp = alloca %"class.cvc5::internal::NodeTemplate", align 8
  %ref.tmp1 = alloca %"class.cvc5::internal::NodeTemplate.561", align 8
  %0 = load ptr, ptr %node, align 8
  %d_kind.i.i.i.i = getelementptr inbounds i8, ptr %0, i64 8
  %bf.load.i.i.i.i = load i16, ptr %d_kind.i.i.i.i, align 8
  %bf.clear.i.i.i.i = and i16 %bf.load.i.i.i.i, 1023
  %bf.cast.i.i.i.i = zext nneg i16 %bf.clear.i.i.i.i to i32
  %cmp.i.i.i.i.i = icmp eq i16 %bf.clear.i.i.i.i, 1023
  %cond.i.i.i.i.i = select i1 %cmp.i.i.i.i.i, i32 -1, i32 %bf.cast.i.i.i.i
  %call2.i.i.i = tail call noundef i32 @_ZN4cvc58internal4kind10metaKindOfENS1_6Kind_tE(i32 noundef %cond.i.i.i.i.i)
  %cmp.i.i = icmp eq i32 %call2.i.i.i, 2
  %d_nchildren.i.i = getelementptr inbounds i8, ptr %0, i64 12
  %bf.load.i.i = load i32, ptr %d_nchildren.i.i, align 4
  %bf.clear.i.i = and i32 %bf.load.i.i, 67108863
  %sub.i.i = sext i1 %cmp.i.i to i32
  %cond.i.i = add nsw i32 %bf.clear.i.i, %sub.i.i
  call void @_ZN4cvc58internal11NodeBuilderC1ENS0_4kind6Kind_tE(ptr noundef nonnull align 8 dereferenceable(116) %nb, i32 noundef %k)
  %cmp17.not = icmp eq i32 %cond.i.i, 0
  br i1 %cmp17.not, label %for.end, label %for.body

for.body:                                         ; preds = %entry, %_ZN4cvc58internal12NodeTemplateILb1EED2Ev.exit
  %i.018 = phi i32 [ %inc, %_ZN4cvc58internal12NodeTemplateILb1EED2Ev.exit ], [ 0, %entry ]
  call void @llvm.experimental.noalias.scope.decl(metadata !248)
  %1 = load ptr, ptr %node, align 8, !noalias !248
  %d_kind.i.i.i.i5 = getelementptr inbounds i8, ptr %1, i64 8
  %bf.load.i.i.i.i6 = load i16, ptr %d_kind.i.i.i.i5, align 8, !noalias !248
  %bf.clear.i.i.i.i7 = and i16 %bf.load.i.i.i.i6, 1023
  %bf.cast.i.i.i.i8 = zext nneg i16 %bf.clear.i.i.i.i7 to i32
  %cmp.i.i.i.i.i9 = icmp eq i16 %bf.clear.i.i.i.i7, 1023
  %cond.i.i.i.i.i10 = select i1 %cmp.i.i.i.i.i9, i32 -1, i32 %bf.cast.i.i.i.i8
  %call2.i.i.i1113 = invoke noundef i32 @_ZN4cvc58internal4kind10metaKindOfENS1_6Kind_tE(i32 noundef %cond.i.i.i.i.i10)
          to label %invoke.cont unwind label %lpad.loopexit

invoke.cont:                                      ; preds = %for.body
  %cmp.i.i12 = icmp eq i32 %call2.i.i.i1113, 2
  %inc.i.i = zext i1 %cmp.i.i12 to i32
  %spec.select.i.i = add nuw nsw i32 %i.018, %inc.i.i
  %d_children.i.i = getelementptr inbounds i8, ptr %1, i64 16
  %idxprom.i.i = sext i32 %spec.select.i.i to i64
  %arrayidx.i.i = getelementptr inbounds [0 x ptr], ptr %d_children.i.i, i64 0, i64 %idxprom.i.i
  %2 = load ptr, ptr %arrayidx.i.i, align 8, !noalias !248
  store ptr %2, ptr %ref.tmp1, align 8, !alias.scope !248
  invoke void @_ZNK4cvc58internal12NodeTemplateILb0EE6eqNodeILb0EEENS1_ILb1EEERKNS1_IXT_EEE(ptr nonnull sret(%"class.cvc5::internal::NodeTemplate") align 8 %ref.tmp, ptr noundef nonnull align 8 dereferenceable(8) %ref.tmp1, ptr noundef nonnull align 8 dereferenceable(8) %c)
          to label %invoke.cont3 unwind label %lpad2

invoke.cont3:                                     ; preds = %invoke.cont
  %3 = load ptr, ptr %ref.tmp, align 8
  store ptr %3, ptr %agg.tmp, align 8
  %call8 = invoke noundef nonnull align 8 dereferenceable(116) ptr @_ZN4cvc58internal11NodeBuilderlsENS0_12NodeTemplateILb0EEE(ptr noundef nonnull align 8 dereferenceable(116) %nb, ptr noundef nonnull %agg.tmp)
          to label %invoke.cont7 unwind label %lpad6

invoke.cont7:                                     ; preds = %invoke.cont3
  %4 = load ptr, ptr %ref.tmp, align 8
  %bf.load.i.i14 = load i64, ptr %4, align 8
  %5 = and i64 %bf.load.i.i14, 1152920405095219200
  %cmp.not.i.i = icmp eq i64 %5, 1152920405095219200
  br i1 %cmp.not.i.i, label %_ZN4cvc58internal12NodeTemplateILb1EED2Ev.exit, label %if.then.i.i

if.then.i.i:                                      ; preds = %invoke.cont7
  %bf.value.i.i = add i64 %bf.load.i.i14, 1152920405095219200
  %bf.shl.i.i = and i64 %bf.value.i.i, 1152920405095219200
  %bf.clear7.i.i = and i64 %bf.load.i.i14, -1152920405095219201
  %bf.set.i.i = or disjoint i64 %bf.shl.i.i, %bf.clear7.i.i
  store i64 %bf.set.i.i, ptr %4, align 8
  %cmp12.i.i = icmp eq i64 %bf.shl.i.i, 0
  br i1 %cmp12.i.i, label %if.then13.i.i, label %_ZN4cvc58internal12NodeTemplateILb1EED2Ev.exit

if.then13.i.i:                                    ; preds = %if.then.i.i
  invoke void @_ZN4cvc58internal4expr9NodeValue15markForDeletionEv(ptr noundef nonnull align 8 dereferenceable(16) %4)
          to label %_ZN4cvc58internal12NodeTemplateILb1EED2Ev.exit unwind label %terminate.lpad.i

terminate.lpad.i:                                 ; preds = %if.then13.i.i
  %6 = landingpad { ptr, i32 }
          catch ptr null
  %7 = extractvalue { ptr, i32 } %6, 0
  call void @__clang_call_terminate(ptr %7) #21
  unreachable

_ZN4cvc58internal12NodeTemplateILb1EED2Ev.exit:   ; preds = %invoke.cont7, %if.then.i.i, %if.then13.i.i
  %inc = add nuw i32 %i.018, 1
  %exitcond.not = icmp eq i32 %inc, %cond.i.i
  br i1 %exitcond.not, label %for.end, label %for.body, !llvm.loop !251

lpad.loopexit:                                    ; preds = %for.body
  %lpad.loopexit15 = landingpad { ptr, i32 }
          cleanup
  br label %ehcleanup11

lpad.loopexit.split-lp:                           ; preds = %for.end
  %lpad.loopexit.split-lp16 = landingpad { ptr, i32 }
          cleanup
  br label %ehcleanup11

lpad2:                                            ; preds = %invoke.cont
  %8 = landingpad { ptr, i32 }
          cleanup
  br label %ehcleanup11

lpad6:                                            ; preds = %invoke.cont3
  %9 = landingpad { ptr, i32 }
          cleanup
  call void @_ZN4cvc58internal12NodeTemplateILb1EED2Ev(ptr noundef nonnull align 8 dereferenceable(8) %ref.tmp) #18
  br label %ehcleanup11

for.end:                                          ; preds = %_ZN4cvc58internal12NodeTemplateILb1EED2Ev.exit, %entry
  invoke void @_ZN4cvc58internal11NodeBuildercvNS0_12NodeTemplateILb1EEEEv(ptr sret(%"class.cvc5::internal::NodeTemplate") align 8 %agg.result, ptr noundef nonnull align 8 dereferenceable(116) %nb)
          to label %invoke.cont10 unwind label %lpad.loopexit.split-lp

invoke.cont10:                                    ; preds = %for.end
  call void @_ZN4cvc58internal11NodeBuilderD1Ev(ptr noundef nonnull align 8 dereferenceable(116) %nb) #18
  ret void

ehcleanup11:                                      ; preds = %lpad.loopexit, %lpad.loopexit.split-lp, %lpad2, %lpad6
  %.pn.pn = phi { ptr, i32 } [ %9, %lpad6 ], [ %8, %lpad2 ], [ %lpad.loopexit15, %lpad.loopexit ], [ %lpad.loopexit.split-lp16, %lpad.loopexit.split-lp ]
  call void @_ZN4cvc58internal11NodeBuilderD1Ev(ptr noundef nonnull align 8 dereferenceable(116) %nb) #18
  resume { ptr, i32 } %.pn.pn
}